target datalayout = "e-m:e-p270:32:32-p271:32:32-p272:64:64-i64:64-f80:128-n8:16:32:64-S128"
target triple = "x86_64-pc-linux-gnu"

%struct.stu = type { [25 x i8], i32, i32, i8, i8, i32 }

@.str = private unnamed_addr constant [3 x i8] c"%d\00", align 1
@.str.1 = private unnamed_addr constant [18 x i8] c"%s %d %d %c %c %d\00", align 1
@.str.2 = private unnamed_addr constant [7 x i8] c"%s\0A%d\0A\00", align 1
@.str.3 = private unnamed_addr constant [4 x i8] c"%d\0A\00", align 1

; Function Attrs: noinline nounwind uwtable
define dso_local i32 @main(i32 %0, i8** %1) #0 {
  %3 = alloca i32, align 4
  %4 = alloca i32, align 4
  %5 = alloca i8**, align 8
  %6 = alloca [110 x %struct.stu], align 16
  %7 = alloca i32, align 4
  %8 = alloca i32, align 4
  %9 = alloca i32, align 4
  %10 = alloca [25 x i8], align 16
  %11 = alloca [110 x i32], align 16
  %12 = alloca i32, align 4
  store i32 0, i32* %3, align 4
  store i32 %0, i32* %4, align 4
  store i8** %1, i8*** %5, align 8
  store i32 0, i32* %9, align 4
  %13 = call i32 (i8*, ...) @__isoc99_scanf(i8* getelementptr inbounds ([3 x i8], [3 x i8]* @.str, i64 0, i64 0), i32* %7)
  store i32 0, i32* %8, align 4
  br label %14

14:                                               ; preds = %44, %2
  %15 = load i32, i32* %8, align 4
  %16 = load i32, i32* %7, align 4
  %17 = icmp slt i32 %15, %16
  br i1 %17, label %18, label %47

18:                                               ; preds = %14
  %19 = load i32, i32* %8, align 4
  %20 = sext i32 %19 to i64
  %21 = getelementptr inbounds [110 x %struct.stu], [110 x %struct.stu]* %6, i64 0, i64 %20
  %22 = getelementptr inbounds %struct.stu, %struct.stu* %21, i32 0, i32 0
  %23 = load i32, i32* %8, align 4
  %24 = sext i32 %23 to i64
  %25 = getelementptr inbounds [110 x %struct.stu], [110 x %struct.stu]* %6, i64 0, i64 %24
  %26 = getelementptr inbounds %struct.stu, %struct.stu* %25, i32 0, i32 1
  %27 = load i32, i32* %8, align 4
  %28 = sext i32 %27 to i64
  %29 = getelementptr inbounds [110 x %struct.stu], [110 x %struct.stu]* %6, i64 0, i64 %28
  %30 = getelementptr inbounds %struct.stu, %struct.stu* %29, i32 0, i32 2
  %31 = load i32, i32* %8, align 4
  %32 = sext i32 %31 to i64
  %33 = getelementptr inbounds [110 x %struct.stu], [110 x %struct.stu]* %6, i64 0, i64 %32
  %34 = getelementptr inbounds %struct.stu, %struct.stu* %33, i32 0, i32 3
  %35 = load i32, i32* %8, align 4
  %36 = sext i32 %35 to i64
  %37 = getelementptr inbounds [110 x %struct.stu], [110 x %struct.stu]* %6, i64 0, i64 %36
  %38 = getelementptr inbounds %struct.stu, %struct.stu* %37, i32 0, i32 4
  %39 = load i32, i32* %8, align 4
  %40 = sext i32 %39 to i64
  %41 = getelementptr inbounds [110 x %struct.stu], [110 x %struct.stu]* %6, i64 0, i64 %40
  %42 = getelementptr inbounds %struct.stu, %struct.stu* %41, i32 0, i32 5
  %43 = call i32 (i8*, ...) @__isoc99_scanf(i8* getelementptr inbounds ([18 x i8], [18 x i8]* @.str.1, i64 0, i64 0), [25 x i8]* %22, i32* %26, i32* %30, i8* %34, i8* %38, i32* %42)
  br label %44

44:                                               ; preds = %18
  %45 = load i32, i32* %8, align 4
  %46 = add nsw i32 %45, 1
  store i32 %46, i32* %8, align 4
  br label %14

47:                                               ; preds = %14
  store i32 0, i32* %8, align 4
  br label %48

48:                                               ; preds = %151, %47
  %49 = load i32, i32* %8, align 4
  %50 = load i32, i32* %7, align 4
  %51 = icmp slt i32 %49, %50
  br i1 %51, label %52, label %154

52:                                               ; preds = %48
  %53 = load i32, i32* %8, align 4
  %54 = sext i32 %53 to i64
  %55 = getelementptr inbounds [110 x i32], [110 x i32]* %11, i64 0, i64 %54
  store i32 0, i32* %55, align 4
  %56 = load i32, i32* %8, align 4
  %57 = sext i32 %56 to i64
  %58 = getelementptr inbounds [110 x %struct.stu], [110 x %struct.stu]* %6, i64 0, i64 %57
  %59 = getelementptr inbounds %struct.stu, %struct.stu* %58, i32 0, i32 1
  %60 = load i32, i32* %59, align 4
  %61 = icmp sgt i32 %60, 80
  br i1 %61, label %62, label %75

62:                                               ; preds = %52
  %63 = load i32, i32* %8, align 4
  %64 = sext i32 %63 to i64
  %65 = getelementptr inbounds [110 x %struct.stu], [110 x %struct.stu]* %6, i64 0, i64 %64
  %66 = getelementptr inbounds %struct.stu, %struct.stu* %65, i32 0, i32 5
  %67 = load i32, i32* %66, align 4
  %68 = icmp sge i32 %67, 1
  br i1 %68, label %69, label %75

69:                                               ; preds = %62
  %70 = load i32, i32* %8, align 4
  %71 = sext i32 %70 to i64
  %72 = getelementptr inbounds [110 x i32], [110 x i32]* %11, i64 0, i64 %71
  %73 = load i32, i32* %72, align 4
  %74 = add nsw i32 %73, 8000
  store i32 %74, i32* %72, align 4
  br label %75

75:                                               ; preds = %69, %62, %52
  %76 = load i32, i32* %8, align 4
  %77 = sext i32 %76 to i64
  %78 = getelementptr inbounds [110 x %struct.stu], [110 x %struct.stu]* %6, i64 0, i64 %77
  %79 = getelementptr inbounds %struct.stu, %struct.stu* %78, i32 0, i32 1
  %80 = load i32, i32* %79, align 4
  %81 = icmp sgt i32 %80, 85
  br i1 %81, label %82, label %95

82:                                               ; preds = %75
  %83 = load i32, i32* %8, align 4
  %84 = sext i32 %83 to i64
  %85 = getelementptr inbounds [110 x %struct.stu], [110 x %struct.stu]* %6, i64 0, i64 %84
  %86 = getelementptr inbounds %struct.stu, %struct.stu* %85, i32 0, i32 2
  %87 = load i32, i32* %86, align 4
  %88 = icmp sgt i32 %87, 80
  br i1 %88, label %89, label %95

89:                                               ; preds = %82
  %90 = load i32, i32* %8, align 4
  %91 = sext i32 %90 to i64
  %92 = getelementptr inbounds [110 x i32], [110 x i32]* %11, i64 0, i64 %91
  %93 = load i32, i32* %92, align 4
  %94 = add nsw i32 %93, 4000
  store i32 %94, i32* %92, align 4
  br label %95

95:                                               ; preds = %89, %82, %75
  %96 = load i32, i32* %8, align 4
  %97 = sext i32 %96 to i64
  %98 = getelementptr inbounds [110 x %struct.stu], [110 x %struct.stu]* %6, i64 0, i64 %97
  %99 = getelementptr inbounds %struct.stu, %struct.stu* %98, i32 0, i32 1
  %100 = load i32, i32* %99, align 4
  %101 = icmp sgt i32 %100, 90
  br i1 %101, label %102, label %108

102:                                              ; preds = %95
  %103 = load i32, i32* %8, align 4
  %104 = sext i32 %103 to i64
  %105 = getelementptr inbounds [110 x i32], [110 x i32]* %11, i64 0, i64 %104
  %106 = load i32, i32* %105, align 4
  %107 = add nsw i32 %106, 2000
  store i32 %107, i32* %105, align 4
  br label %108

108:                                              ; preds = %102, %95
  %109 = load i32, i32* %8, align 4
  %110 = sext i32 %109 to i64
  %111 = getelementptr inbounds [110 x %struct.stu], [110 x %struct.stu]* %6, i64 0, i64 %110
  %112 = getelementptr inbounds %struct.stu, %struct.stu* %111, i32 0, i32 1
  %113 = load i32, i32* %112, align 4
  %114 = icmp sgt i32 %113, 85
  br i1 %114, label %115, label %129

115:                                              ; preds = %108
  %116 = load i32, i32* %8, align 4
  %117 = sext i32 %116 to i64
  %118 = getelementptr inbounds [110 x %struct.stu], [110 x %struct.stu]* %6, i64 0, i64 %117
  %119 = getelementptr inbounds %struct.stu, %struct.stu* %118, i32 0, i32 4
  %120 = load i8, i8* %119, align 1
  %121 = sext i8 %120 to i32
  %122 = icmp eq i32 %121, 89
  br i1 %122, label %123, label %129

123:                                              ; preds = %115
  %124 = load i32, i32* %8, align 4
  %125 = sext i32 %124 to i64
  %126 = getelementptr inbounds [110 x i32], [110 x i32]* %11, i64 0, i64 %125
  %127 = load i32, i32* %126, align 4
  %128 = add nsw i32 %127, 1000
  store i32 %128, i32* %126, align 4
  br label %129

129:                                              ; preds = %123, %115, %108
  %130 = load i32, i32* %8, align 4
  %131 = sext i32 %130 to i64
  %132 = getelementptr inbounds [110 x %struct.stu], [110 x %struct.stu]* %6, i64 0, i64 %131
  %133 = getelementptr inbounds %struct.stu, %struct.stu* %132, i32 0, i32 2
  %134 = load i32, i32* %133, align 4
  %135 = icmp sgt i32 %134, 80
  br i1 %135, label %136, label %150

136:                                              ; preds = %129
  %137 = load i32, i32* %8, align 4
  %138 = sext i32 %137 to i64
  %139 = getelementptr inbounds [110 x %struct.stu], [110 x %struct.stu]* %6, i64 0, i64 %138
  %140 = getelementptr inbounds %struct.stu, %struct.stu* %139, i32 0, i32 3
  %141 = load i8, i8* %140, align 4
  %142 = sext i8 %141 to i32
  %143 = icmp eq i32 %142, 89
  br i1 %143, label %144, label %150

144:                                              ; preds = %136
  %145 = load i32, i32* %8, align 4
  %146 = sext i32 %145 to i64
  %147 = getelementptr inbounds [110 x i32], [110 x i32]* %11, i64 0, i64 %146
  %148 = load i32, i32* %147, align 4
  %149 = add nsw i32 %148, 850
  store i32 %149, i32* %147, align 4
  br label %150

150:                                              ; preds = %144, %136, %129
  br label %151

151:                                              ; preds = %150
  %152 = load i32, i32* %8, align 4
  %153 = add nsw i32 %152, 1
  store i32 %153, i32* %8, align 4
  br label %48

154:                                              ; preds = %48
  store i32 0, i32* %8, align 4
  br label %155

155:                                              ; preds = %179, %154
  %156 = load i32, i32* %8, align 4
  %157 = load i32, i32* %7, align 4
  %158 = icmp slt i32 %156, %157
  br i1 %158, label %159, label %182

159:                                              ; preds = %155
  %160 = load i32, i32* %8, align 4
  %161 = sext i32 %160 to i64
  %162 = getelementptr inbounds [110 x i32], [110 x i32]* %11, i64 0, i64 %161
  %163 = load i32, i32* %162, align 4
  %164 = load i32, i32* %9, align 4
  %165 = icmp sgt i32 %163, %164
  br i1 %165, label %166, label %178

166:                                              ; preds = %159
  %167 = getelementptr inbounds [25 x i8], [25 x i8]* %10, i64 0, i64 0
  %168 = load i32, i32* %8, align 4
  %169 = sext i32 %168 to i64
  %170 = getelementptr inbounds [110 x %struct.stu], [110 x %struct.stu]* %6, i64 0, i64 %169
  %171 = getelementptr inbounds %struct.stu, %struct.stu* %170, i32 0, i32 0
  %172 = getelementptr inbounds [25 x i8], [25 x i8]* %171, i64 0, i64 0
  %173 = call i8* @strcpy(i8* %167, i8* %172) #3
  %174 = load i32, i32* %8, align 4
  %175 = sext i32 %174 to i64
  %176 = getelementptr inbounds [110 x i32], [110 x i32]* %11, i64 0, i64 %175
  %177 = load i32, i32* %176, align 4
  store i32 %177, i32* %9, align 4
  br label %178

178:                                              ; preds = %166, %159
  br label %179

179:                                              ; preds = %178
  %180 = load i32, i32* %8, align 4
  %181 = add nsw i32 %180, 1
  store i32 %181, i32* %8, align 4
  br label %155

182:                                              ; preds = %155
  %183 = getelementptr inbounds [25 x i8], [25 x i8]* %10, i64 0, i64 0
  %184 = load i32, i32* %9, align 4
  %185 = call i32 (i8*, ...) @printf(i8* getelementptr inbounds ([7 x i8], [7 x i8]* @.str.2, i64 0, i64 0), i8* %183, i32 %184)
  store i32 0, i32* %12, align 4
  store i32 0, i32* %8, align 4
  br label %186

186:                                              ; preds = %197, %182
  %187 = load i32, i32* %8, align 4
  %188 = load i32, i32* %7, align 4
  %189 = icmp slt i32 %187, %188
  br i1 %189, label %190, label %200

190:                                              ; preds = %186
  %191 = load i32, i32* %8, align 4
  %192 = sext i32 %191 to i64
  %193 = getelementptr inbounds [110 x i32], [110 x i32]* %11, i64 0, i64 %192
  %194 = load i32, i32* %193, align 4
  %195 = load i32, i32* %12, align 4
  %196 = add nsw i32 %195, %194
  store i32 %196, i32* %12, align 4
  br label %197

197:                                              ; preds = %190
  %198 = load i32, i32* %8, align 4
  %199 = add nsw i32 %198, 1
  store i32 %199, i32* %8, align 4
  br label %186

200:                                              ; preds = %186
  %201 = load i32, i32* %12, align 4
  %202 = call i32 (i8*, ...) @printf(i8* getelementptr inbounds ([4 x i8], [4 x i8]* @.str.3, i64 0, i64 0), i32 %201)
  ret i32 0
}